target datalayout = "e-m:e-p270:32:32-p271:32:32-p272:64:64-i64:64-i128:128-f80:128-n8:16:32:64-S128"
target triple = "x86_64-pc-linux-gnu"

%struct.grpc_slice = type { ptr, %"union.grpc_slice::grpc_slice_data" }
%"union.grpc_slice::grpc_slice_data" = type { %"struct.grpc_slice::grpc_slice_data::grpc_slice_refcounted", [8 x i8] }
%"struct.grpc_slice::grpc_slice_data::grpc_slice_refcounted" = type { i64, ptr }
%struct.grpc_slice_buffer = type { ptr, ptr, i64, i64, i64, [6 x %struct.grpc_slice] }
%"struct.grpc_slice::grpc_slice_data::grpc_slice_inlined" = type { i8, [23 x i8] }

; Function Attrs: mustprogress nounwind uwtable
define void @grpc_slice_buffer_pop(ptr noundef %0) #6 {
  %2 = alloca ptr, align 8
  %3 = alloca i64, align 8
  store ptr %0, ptr %2, align 8, !tbaa !10
  %4 = load ptr, ptr %2, align 8, !tbaa !10
  %5 = getelementptr inbounds nuw %struct.grpc_slice_buffer, ptr %4, i32 0, i32 2
  %6 = load i64, ptr %5, align 8, !tbaa !12
  %7 = icmp ne i64 %6, 0
  br i1 %7, label %8, label %46

8:                                                ; preds = %1
  call void @llvm.lifetime.start.p0(i64 8, ptr %3) #3
  %9 = load ptr, ptr %2, align 8, !tbaa !10
  %10 = getelementptr inbounds nuw %struct.grpc_slice_buffer, ptr %9, i32 0, i32 2
  %11 = load i64, ptr %10, align 8, !tbaa !12
  %12 = add i64 %11, -1
  store i64 %12, ptr %10, align 8, !tbaa !12
  store i64 %12, ptr %3, align 8, !tbaa !16
  %13 = load ptr, ptr %2, align 8, !tbaa !10
  %14 = getelementptr inbounds nuw %struct.grpc_slice_buffer, ptr %13, i32 0, i32 1
  %15 = load ptr, ptr %14, align 8, !tbaa !18
  %16 = load i64, ptr %3, align 8, !tbaa !16
  %17 = getelementptr inbounds nuw %struct.grpc_slice, ptr %15, i64 %16
  %18 = getelementptr inbounds nuw %struct.grpc_slice, ptr %17, i32 0, i32 0
  %19 = load ptr, ptr %18, align 8, !tbaa !19
  %20 = icmp ne ptr %19, null
  br i1 %20, label %21, label %30

21:                                               ; preds = %8
  %22 = load ptr, ptr %2, align 8, !tbaa !10
  %23 = getelementptr inbounds nuw %struct.grpc_slice_buffer, ptr %22, i32 0, i32 1
  %24 = load ptr, ptr %23, align 8, !tbaa !18
  %25 = load i64, ptr %3, align 8, !tbaa !16
  %26 = getelementptr inbounds nuw %struct.grpc_slice, ptr %24, i64 %25
  %27 = getelementptr inbounds nuw %struct.grpc_slice, ptr %26, i32 0, i32 1
  %28 = getelementptr inbounds nuw %"struct.grpc_slice::grpc_slice_data::grpc_slice_refcounted", ptr %27, i32 0, i32 0
  %29 = load i64, ptr %28, align 8, !tbaa !22
  br label %40

30:                                               ; preds = %8
  %31 = load ptr, ptr %2, align 8, !tbaa !10
  %32 = getelementptr inbounds nuw %struct.grpc_slice_buffer, ptr %31, i32 0, i32 1
  %33 = load ptr, ptr %32, align 8, !tbaa !18
  %34 = load i64, ptr %3, align 8, !tbaa !16
  %35 = getelementptr inbounds nuw %struct.grpc_slice, ptr %33, i64 %34
  %36 = getelementptr inbounds nuw %struct.grpc_slice, ptr %35, i32 0, i32 1
  %37 = getelementptr inbounds nuw %"struct.grpc_slice::grpc_slice_data::grpc_slice_inlined", ptr %36, i32 0, i32 0
  %38 = load i8, ptr %37, align 8, !tbaa !22
  %39 = zext i8 %38 to i64
  br label %40

40:                                               ; preds = %30, %21
  %41 = phi i64 [ %29, %21 ], [ %39, %30 ]
  %42 = load ptr, ptr %2, align 8, !tbaa !10
  %43 = getelementptr inbounds nuw %struct.grpc_slice_buffer, ptr %42, i32 0, i32 4
  %44 = load i64, ptr %43, align 8, !tbaa !23
  %45 = sub i64 %44, %41
  store i64 %45, ptr %43, align 8, !tbaa !23
  call void @llvm.lifetime.end.p0(i64 8, ptr %3) #3
  br label %46

46:                                               ; preds = %40, %1
  ret void
}