; Function Attrs: mustprogress nofree norecurse nosync nounwind willreturn memory(read, argmem: readwrite, inaccessiblemem: none) uwtable
define void @grpc_slice_buffer_pop(ptr noundef captures(none) %0) local_unnamed_addr #13 {
  %2 = getelementptr inbounds nuw i8, ptr %0, i64 16
  %3 = load i64, ptr %2, align 8, !tbaa !13
  %.not = icmp eq i64 %3, 0
  br i1 %.not, label %21, label %4

4:                                                ; preds = %1
  %5 = add i64 %3, -1
  store i64 %5, ptr %2, align 8, !tbaa !13
  %6 = getelementptr inbounds nuw i8, ptr %0, i64 8
  %7 = load ptr, ptr %6, align 8, !tbaa !17
  %8 = getelementptr inbounds nuw %struct.grpc_slice, ptr %7, i64 %5
  %9 = load ptr, ptr %8, align 8, !tbaa !18
  %.not8 = icmp eq ptr %9, null
  %10 = getelementptr inbounds nuw i8, ptr %8, i64 8
  br i1 %.not8, label %13, label %11

11:                                               ; preds = %4
  %12 = load i64, ptr %10, align 8, !tbaa !9
  br label %16

13:                                               ; preds = %4
  %14 = load i8, ptr %10, align 8, !tbaa !9
  %15 = zext i8 %14 to i64
  br label %16

16:                                               ; preds = %13, %11
  %17 = phi i64 [ %12, %11 ], [ %15, %13 ]
  %18 = getelementptr inbounds nuw i8, ptr %0, i64 32
  %19 = load i64, ptr %18, align 8, !tbaa !20
  %20 = sub i64 %19, %17
  store i64 %20, ptr %18, align 8, !tbaa !20
  br label %21

21:                                               ; preds = %16, %1
  ret void
}